#include <math.h>
#include <stdio.h>
#include <stdlib.h>
#include <string.h>


int main(int argc, char* argv[])
{
	int a,b,c;
	scanf("%d",&a);
	if(a==1)
		printf("End");
	else
	{
	do
	{
		if(a%2==0)
		{
			b=a/2;
			printf("%d/2=%d\n",a,b);
		}
		else
		{
			b=a*3+1;
		printf("%d*3+1=%d\n",a,b);
		}
		a=b;
	}
	while(a!=1);
	printf("End");
	}
	return 0;
}