; ModuleID = '34/2340.c'
source_filename = "34/2340.c"
target datalayout = "e-m:e-p270:32:32-p271:32:32-p272:64:64-i64:64-f80:128-n8:16:32:64-S128"
target triple = "x86_64-pc-linux-gnu"

@.str = private unnamed_addr constant [3 x i8] c"%d\00", align 1
@.str.1 = private unnamed_addr constant [4 x i8] c"End\00", align 1
@.str.2 = private unnamed_addr constant [9 x i8] c"%d/2=%d\0A\00", align 1
@.str.3 = private unnamed_addr constant [11 x i8] c"%d*3+1=%d\0A\00", align 1

; Function Attrs: noinline nounwind uwtable
define dso_local i32 @main(i32 %0, i8** %1) #0 {
  %3 = alloca i32, align 4
  %4 = alloca i32, align 4
  %5 = alloca i8**, align 8
  %6 = alloca i32, align 4
  %7 = alloca i32, align 4
  %8 = alloca i32, align 4
  store i32 0, i32* %3, align 4
  store i32 %0, i32* %4, align 4
  store i8** %1, i8*** %5, align 8
  %9 = call i32 (i8*, ...) @__isoc99_scanf(i8* getelementptr inbounds ([3 x i8], [3 x i8]* @.str, i64 0, i64 0), i32* %6)
  %10 = load i32, i32* %6, align 4
  %11 = icmp eq i32 %10, 1
  br i1 %11, label %12, label %14

12:                                               ; preds = %2
  %13 = call i32 (i8*, ...) @printf(i8* getelementptr inbounds ([4 x i8], [4 x i8]* @.str.1, i64 0, i64 0))
  br label %39

14:                                               ; preds = %2
  br label %15

15:                                               ; preds = %34, %14
  %16 = load i32, i32* %6, align 4
  %17 = srem i32 %16, 2
  %18 = icmp eq i32 %17, 0
  br i1 %18, label %19, label %25

19:                                               ; preds = %15
  %20 = load i32, i32* %6, align 4
  %21 = sdiv i32 %20, 2
  store i32 %21, i32* %7, align 4
  %22 = load i32, i32* %6, align 4
  %23 = load i32, i32* %7, align 4
  %24 = call i32 (i8*, ...) @printf(i8* getelementptr inbounds ([9 x i8], [9 x i8]* @.str.2, i64 0, i64 0), i32 %22, i32 %23)
  br label %32

25:                                               ; preds = %15
  %26 = load i32, i32* %6, align 4
  %27 = mul nsw i32 %26, 3
  %28 = add nsw i32 %27, 1
  store i32 %28, i32* %7, align 4
  %29 = load i32, i32* %6, align 4
  %30 = load i32, i32* %7, align 4
  %31 = call i32 (i8*, ...) @printf(i8* getelementptr inbounds ([11 x i8], [11 x i8]* @.str.3, i64 0, i64 0), i32 %29, i32 %30)
  br label %32

32:                                               ; preds = %25, %19
  %33 = load i32, i32* %7, align 4
  store i32 %33, i32* %6, align 4
  br label %34

34:                                               ; preds = %32
  %35 = load i32, i32* %6, align 4
  %36 = icmp ne i32 %35, 1
  br i1 %36, label %15, label %37

37:                                               ; preds = %34
  %38 = call i32 (i8*, ...) @printf(i8* getelementptr inbounds ([4 x i8], [4 x i8]* @.str.1, i64 0, i64 0))
  br label %39

39:                                               ; preds = %37, %12
  ret i32 0
}

declare dso_local i32 @__isoc99_scanf(i8*, ...) #1

declare dso_local i32 @printf(i8*, ...) #1


!llvm.module.flags = !{!0}
!llvm.ident = !{!1}

!0 = !{i32 1, !"wchar_size", i32 4}
!1 = !{!"clang version 10.0.0-4ubuntu1 "}
